; ModuleID = 'source-C-CXX/42/292.c'
source_filename = "source-C-CXX/42/292.c"
target datalayout = "e-m:e-p270:32:32-p271:32:32-p272:64:64-i64:64-f80:128-n8:16:32:64-S128"
target triple = "x86_64-pc-linux-gnu"

@.str = private unnamed_addr constant [3 x i8] c"%d\00", align 1
@.str.1 = private unnamed_addr constant [7 x i8] c"%d %d\0A\00", align 1

; Function Attrs: nofree nounwind sspstrong uwtable
define dso_local i32 @main() local_unnamed_addr #0 {
  %1 = alloca i32, align 4
  %2 = bitcast i32* %1 to i8*
  call void @llvm.lifetime.start.p0i8(i64 4, i8* nonnull %2) #4
  %3 = call i32 (i8*, ...) @__isoc99_scanf(i8* getelementptr inbounds ([3 x i8], [3 x i8]* @.str, i64 0, i64 0), i32* nonnull %1)
  %4 = load i32, i32* %1, align 4, !tbaa !5
  %5 = icmp slt i32 %4, 6
  br i1 %5, label %39, label %6

6:                                                ; preds = %0, %34
  %7 = phi i32 [ %35, %34 ], [ %4, %0 ]
  %8 = phi i32 [ %36, %34 ], [ 3, %0 ]
  %9 = icmp ult i32 %8, 4
  br i1 %9, label %19, label %10

10:                                               ; preds = %6
  %11 = lshr i32 %8, 1
  br label %15

12:                                               ; preds = %15
  %13 = add nuw nsw i32 %16, 1
  %14 = icmp eq i32 %16, %11
  br i1 %14, label %19, label %15, !llvm.loop !9

15:                                               ; preds = %12, %10
  %16 = phi i32 [ %13, %12 ], [ 2, %10 ]
  %17 = urem i32 %8, %16
  %18 = icmp eq i32 %17, 0
  br i1 %18, label %34, label %12

19:                                               ; preds = %12, %6
  %20 = sub nsw i32 %7, %8
  %21 = icmp slt i32 %20, 4
  br i1 %21, label %31, label %22

22:                                               ; preds = %19
  %23 = lshr i32 %20, 1
  br label %27

24:                                               ; preds = %27
  %25 = add nuw nsw i32 %28, 1
  %26 = icmp eq i32 %28, %23
  br i1 %26, label %31, label %27, !llvm.loop !9

27:                                               ; preds = %24, %22
  %28 = phi i32 [ %25, %24 ], [ 2, %22 ]
  %29 = srem i32 %20, %28
  %30 = icmp eq i32 %29, 0
  br i1 %30, label %34, label %24

31:                                               ; preds = %24, %19
  %32 = call i32 (i8*, ...) @printf(i8* nonnull dereferenceable(1) getelementptr inbounds ([7 x i8], [7 x i8]* @.str.1, i64 0, i64 0), i32 %8, i32 %20)
  %33 = load i32, i32* %1, align 4, !tbaa !5
  br label %34

34:                                               ; preds = %15, %27, %31
  %35 = phi i32 [ %33, %31 ], [ %7, %27 ], [ %7, %15 ]
  %36 = add nuw nsw i32 %8, 1
  %37 = sdiv i32 %35, 2
  %38 = icmp slt i32 %8, %37
  br i1 %38, label %6, label %39, !llvm.loop !11

39:                                               ; preds = %34, %0
  call void @llvm.lifetime.end.p0i8(i64 4, i8* nonnull %2) #4
  ret i32 0
}

; Function Attrs: argmemonly mustprogress nofree nosync nounwind willreturn
declare void @llvm.lifetime.start.p0i8(i64 immarg, i8* nocapture) #1

; Function Attrs: nofree nounwind
declare noundef i32 @__isoc99_scanf(i8* nocapture noundef readonly, ...) local_unnamed_addr #2

; Function Attrs: nofree norecurse nosync nounwind readnone sspstrong uwtable
define dso_local i32 @su(i32 %0) local_unnamed_addr #3 {
  %2 = icmp slt i32 %0, 4
  br i1 %2, label %12, label %3

3:                                                ; preds = %1
  %4 = lshr i32 %0, 1
  br label %8

5:                                                ; preds = %8
  %6 = add nuw nsw i32 %9, 1
  %7 = icmp eq i32 %9, %4
  br i1 %7, label %12, label %8, !llvm.loop !9

8:                                                ; preds = %3, %5
  %9 = phi i32 [ %6, %5 ], [ 2, %3 ]
  %10 = srem i32 %0, %9
  %11 = icmp eq i32 %10, 0
  br i1 %11, label %12, label %5

12:                                               ; preds = %8, %5, %1
  %13 = phi i32 [ 1, %1 ], [ 1, %5 ], [ 0, %8 ]
  ret i32 %13
}

; Function Attrs: nofree nounwind
declare noundef i32 @printf(i8* nocapture noundef readonly, ...) local_unnamed_addr #2

; Function Attrs: argmemonly mustprogress nofree nosync nounwind willreturn
declare void @llvm.lifetime.end.p0i8(i64 immarg, i8* nocapture) #1


!llvm.module.flags = !{!0, !1, !2, !3}
!llvm.ident = !{!4}

!0 = !{i32 1, !"wchar_size", i32 4}
!1 = !{i32 7, !"PIC Level", i32 2}
!2 = !{i32 7, !"PIE Level", i32 2}
!3 = !{i32 7, !"uwtable", i32 1}
!4 = !{!"clang version 13.0.0"}
!5 = !{!6, !6, i64 0}
!6 = !{!"int", !7, i64 0}
!7 = !{!"omnipotent char", !8, i64 0}
!8 = !{!"Simple C/C++ TBAA"}
!9 = distinct !{!9, !10}
!10 = !{!"llvm.loop.mustprogress"}
!11 = distinct !{!11, !10}
